target datalayout = "e-m:e-p270:32:32-p271:32:32-p272:64:64-i64:64-i128:128-f80:128-n8:16:32:64-S128"
target triple = "x86_64-pc-linux-gnu"

; Function Attrs: alwaysinline nounwind uwtable
define internal float @rescale(i32 noundef %0, float noundef %1) #12 {
  %3 = alloca i32, align 4
  %4 = alloca float, align 4
  store i32 %0, ptr %3, align 4, !tbaa !9
  store float %1, ptr %4, align 4, !tbaa !99
  %5 = load i32, ptr %3, align 4, !tbaa !9
  %6 = sitofp i32 %5 to float
  %7 = call nsz float @llvm.fmuladd.f32(float 2.000000e+00, float %6, float 1.000000e+00)
  %8 = load float, ptr %4, align 4, !tbaa !99
  %9 = fdiv nsz float %7, %8
  %10 = fsub nsz float %9, 1.000000e+00
  ret float %10
}

; Function Attrs: nounwind uwtable
define internal i32 @hequirect_to_xyz(ptr noundef %0, i32 noundef %1, i32 noundef %2, i32 noundef %3, i32 noundef %4, ptr noundef %5) #0 {
  %7 = alloca ptr, align 8
  %8 = alloca i32, align 4
  %9 = alloca i32, align 4
  %10 = alloca i32, align 4
  %11 = alloca i32, align 4
  %12 = alloca ptr, align 8
  %13 = alloca float, align 4
  %14 = alloca float, align 4
  %15 = alloca float, align 4
  %16 = alloca float, align 4
  %17 = alloca float, align 4
  %18 = alloca float, align 4
  store ptr %0, ptr %7, align 8, !tbaa !4
  store i32 %1, ptr %8, align 4, !tbaa !9
  store i32 %2, ptr %9, align 4, !tbaa !9
  store i32 %3, ptr %10, align 4, !tbaa !9
  store i32 %4, ptr %11, align 4, !tbaa !9
  store ptr %5, ptr %12, align 8, !tbaa !188
  call void @llvm.lifetime.start.p0(i64 4, ptr %13) #13
  %19 = load i32, ptr %8, align 4, !tbaa !9
  %20 = load i32, ptr %10, align 4, !tbaa !9
  %21 = sitofp i32 %20 to float
  %22 = call nsz float @rescale(i32 noundef %19, float noundef %21)
  %23 = fpext nsz float %22 to double
  %24 = fmul nsz double %23, 0x3FF921FB54442D18
  %25 = fptrunc nsz double %24 to float
  store float %25, ptr %13, align 4, !tbaa !99
  call void @llvm.lifetime.start.p0(i64 4, ptr %14) #13
  %26 = load i32, ptr %9, align 4, !tbaa !9
  %27 = load i32, ptr %11, align 4, !tbaa !9
  %28 = sitofp i32 %27 to float
  %29 = call nsz float @rescale(i32 noundef %26, float noundef %28)
  %30 = fpext nsz float %29 to double
  %31 = fmul nsz double %30, 0x3FF921FB54442D18
  %32 = fptrunc nsz double %31 to float
  store float %32, ptr %14, align 4, !tbaa !99
  call void @llvm.lifetime.start.p0(i64 4, ptr %15) #13
  %33 = load float, ptr %13, align 4, !tbaa !99
  %34 = call nsz float @llvm.sin.f32(float %33)
  store float %34, ptr %15, align 4, !tbaa !99
  call void @llvm.lifetime.start.p0(i64 4, ptr %16) #13
  %35 = load float, ptr %13, align 4, !tbaa !99
  %36 = call nsz float @llvm.cos.f32(float %35)
  store float %36, ptr %16, align 4, !tbaa !99
  call void @llvm.lifetime.start.p0(i64 4, ptr %17) #13
  %37 = load float, ptr %14, align 4, !tbaa !99
  %38 = call nsz float @llvm.sin.f32(float %37)
  store float %38, ptr %17, align 4, !tbaa !99
  call void @llvm.lifetime.start.p0(i64 4, ptr %18) #13
  %39 = load float, ptr %14, align 4, !tbaa !99
  %40 = call nsz float @llvm.cos.f32(float %39)
  store float %40, ptr %18, align 4, !tbaa !99
  %41 = load float, ptr %18, align 4, !tbaa !99
  %42 = load float, ptr %15, align 4, !tbaa !99
  %43 = fmul nsz float %41, %42
  %44 = load ptr, ptr %12, align 8, !tbaa !188
  %45 = getelementptr inbounds float, ptr %44, i64 0
  store float %43, ptr %45, align 4, !tbaa !99
  %46 = load float, ptr %17, align 4, !tbaa !99
  %47 = load ptr, ptr %12, align 8, !tbaa !188
  %48 = getelementptr inbounds float, ptr %47, i64 1
  store float %46, ptr %48, align 4, !tbaa !99
  %49 = load float, ptr %18, align 4, !tbaa !99
  %50 = load float, ptr %16, align 4, !tbaa !99
  %51 = fmul nsz float %49, %50
  %52 = load ptr, ptr %12, align 8, !tbaa !188
  %53 = getelementptr inbounds float, ptr %52, i64 2
  store float %51, ptr %53, align 4, !tbaa !99
  call void @llvm.lifetime.end.p0(i64 4, ptr %18) #13
  call void @llvm.lifetime.end.p0(i64 4, ptr %17) #13
  call void @llvm.lifetime.end.p0(i64 4, ptr %16) #13
  call void @llvm.lifetime.end.p0(i64 4, ptr %15) #13
  call void @llvm.lifetime.end.p0(i64 4, ptr %14) #13
  call void @llvm.lifetime.end.p0(i64 4, ptr %13) #13
  ret i32 1
}